; Function Attrs: mustprogress nounwind uwtable
define void @_ZN4LIEF5MachO9SubClientC2ERKNS0_7details18sub_client_commandE(ptr noundef nonnull align 8 dereferenceable(88) %0, ptr noundef nonnull readonly align 4 captures(none) dereferenceable(12) %1) unnamed_addr #0 align 2 {
  %3 = load i32, ptr %1, align 4, !tbaa !3
  %4 = zext i32 %3 to i64
  %5 = getelementptr inbounds nuw i8, ptr %1, i64 4
  %6 = load i32, ptr %5, align 4, !tbaa !8
  tail call void @_ZN4LIEF6ObjectC2Ev(ptr noundef nonnull align 8 dereferenceable(56) %0) #10
  %7 = getelementptr inbounds nuw i8, ptr %0, i64 8
  tail call void @llvm.memset.p0.i64(ptr noundef nonnull align 8 dereferenceable(24) %7, i8 0, i64 24, i1 false)
  %8 = getelementptr inbounds nuw i8, ptr %0, i64 32
  store i64 %4, ptr %8, align 8, !tbaa !9
  %9 = getelementptr inbounds nuw i8, ptr %0, i64 40
  store i32 %6, ptr %9, align 8, !tbaa !20
  %10 = getelementptr inbounds nuw i8, ptr %0, i64 48
  store i64 0, ptr %10, align 8, !tbaa !21
  store ptr getelementptr inbounds nuw inrange(-16, 56) (i8, ptr @_ZTVN4LIEF5MachO9SubClientE, i64 16), ptr %0, align 8, !tbaa !22
  %11 = getelementptr inbounds nuw i8, ptr %0, i64 56
  %12 = getelementptr inbounds nuw i8, ptr %0, i64 72
  store ptr %12, ptr %11, align 8, !tbaa !24
  %13 = getelementptr inbounds nuw i8, ptr %0, i64 64
  store i64 0, ptr %13, align 8, !tbaa !26
  store i8 0, ptr %12, align 8, !tbaa !28
  ret void
}